c__builtin__
set
p0
((lp1
Vall
p2
aVshe'll
p3
aS'help'
p4
aVdon't
p5
aVbeing
p6
aVwhen
p7
aVover
p8
aS'text'
p9
aVthrough
p10
aS'nbsp'
p11
aVyourselves
p12
aVhe'll
p13
aS'font'
p14
aVits
p15
aVbefore
p16
aS'style'
p17
aS'arial'
p18
aS'$'
p19
aVhe's
p20
aVwhen's
p21
aVwe've
p22
aS'xent'
p23
aVhad
p24
aS','
p25
aS'verdana'
p26
aVshould
p27
aVhe'd
p28
aVto
p29
aVonly
p30
aVthere's
p31
aVthose
p32
aS'version'
p33
aVunder
p34
aVours
p35
aS'ffffff'
p36
aVhas
p37
aS'<'
p38
aVhaven't
p39
aS'recipient'
p40
aVdo
p41
aVthem
p42
aVhis
p43
aS'return'
p44
aVthey'll
p45
aVvery
p46
aVwho's
p47
aS'zzzz'
p48
aVthey'd
p49
aVcannot
p50
aS'example'
p51
aVyou've
p52
aVthey
p53
aVnot
p54
aVduring
p55
aS'height'
p56
aS'class'
p57
aVhim
p58
aVnor
p59
aS'sans'
p60
aS'cnet'
p61
aS'`'
p62
aVwe'll
p63
aS'name'
p64
aS'header'
p65
aVdid
p66
aS'cellspacing'
p67
aS'bgcolor'
p68
aS'list'
p69
aVthey've
p70
aVthis
p71
aVshe
p72
aVeach
p73
aVwon't
p74
aS'smtp'
p75
aVwhere
p76
aVmustn't
p77
aVisn't
p78
aS'localhost'
p79
aVi'll
p80
aVwhy's
p81
aVbecause
p82
aS'charset'
p83
aVyou'd
p84
aVdoing
p85
aVthere
p86
aVsome
p87
aVup
p88
aVare
p89
aS'images'
p90
aVfurther
p91
aVourselves
p92
aVout
p93
aS'delivered'
p94
aVwhat
p95
aVfor
p96
aS'halign'
p97
aS'+'
p98
aVwhile
p99
aS'/'
p100
aS'content'
p101
aVdoes
p102
aS'listinfo'
p103
aVshouldn't
p104
aVabove
p105
aVbetween
p106
aS';'
p107
aS'email'
p108
aS'?'
p109
aS'body'
p110
aVbe
p111
aVwe
p112
aVwho
p113
aS'html'
p114
aVyou're
p115
aS'left'
p116
aVwere
p117
aS'subject'
p118
aVhere
p119
aS'receiver'
p120
aS'mime'
p121
aS'clickthru'
p122
aVhers
p123
aS'span'
p124
aS'['
p125
aVaren't
p126
aVby
p127
aS'_'
p128
aS'zdnet'
p129
aVboth
p130
aVabout
p131
aVwould
p132
aS'admin'
p133
aVtheirs
p134
aVcould
p135
aS'title'
p136
aS'esmtp'
p137
aVagainst
p138
aS'|'
p139
aS'netnoteinc'
p140
aVi'd
p141
aVweren't
p142
aS'('
p143
aS'cellpadding'
p144
aS'{'
p145
aVor
p146
aVcan't
p147
aVown
p148
aS'color'
p149
aS'colspan'
p150
aVinto
p151
aVyourself
p152
aVdown
p153
aVhadn't
p154
aS'href'
p155
aVcouldn't
p156
aS'path'
p157
aS'home'
p158
aS'table'
p159
aS'message'
p160
aVyour
p161
aS'size'
p162
aS'mailto'
p163
aVdoesn't
p164
aVhe
p165
aS'"'
p166
aVfrom
p167
aVhow's
p168
aVher
p169
aS'&'
p170
aVit's
p171
aS'*'
p172
aS'helvetica'
p173
aVbeen
p174
aS'.'
p175
aVtheir
p176
aVtoo
p177
aVthen
p178
aVthemselves
p179
aS':'
p180
aVwas
p181
aVuntil
p182
aS'\\'
p183
aVmore
p184
aS'fork'
p185
aVhimself
p186
aVwhere's
p187
aS'option'
p188
aVi've
p189
aVwith
p190
aVdidn't
p191
aVwhat's
p192
aS'valign'
p193
aVbut
p194
aS'delivery'
p195
aS'serif'
p196
aS'unsubscribe'
p197
aS'mail'
p198
aVherself
p199
aVthan
p200
aVhere's
p201
aS'^'
p202
aVme
p203
aVthey're
p204
aVmyself
p205
aS'sender'
p206
aS'input'
p207
aVwasn't
p208
aS'type'
p209
aS'align'
p210
aVhasn't
p211
aS'value'
p212
aS'will'
p213
aS'postfix'
p214
aVbelow
p215
aVought
p216
aVof
p217
aS'>'
p218
aVmy
p219
aVwouldn't
p220
aS'~'
p221
aVand
p222
aVfew
p223
aS'@'
p224
aS'request'
p225
aVis
p226
aS'received'
p227
aVam
p228
aVit
p229
aVan
p230
aVwe'd
p231
aVas
p232
aVitself
p233
aS'right'
p234
aVat
p235
aVhave
p236
aVin
p237
aS'face'
p238
aVshan't
p239
aVany
p240
aVwhom
p241
aS'!'
p242
aVthese
p243
aS'%'
p244
aVno
p245
aS')'
p246
aS'border'
p247
aVthat
p248
aS'-'
p249
aVsame
p250
aS'click'
p251
aVhow
p252
aVother
p253
aVwhich
p254
aS'online'
p255
aVyou
p256
aVif
p257
aS'='
p258
aS'http'
p259
aVagain
p260
aVour
p261
aVwhy
p262
aVafter
p263
aS'#'
p264
aVlet's
p265
aVmost
p266
aS'date'
p267
aVsuch
p268
aVon
p269
aS']'
p270
aVi'm
p271
aVa
p272
aVoff
p273
aS"'"
p274
aVi
p275
aS'subscribe'
p276
aS'center'
p277
aVshe'd
p278
aVyours
p279
aVyou'll
p280
aS'width'
p281
aVso
p282
aVwe're
p283
aVshe's
p284
aVthe
p285
aVthat's
p286
aS'}'
p287
aVhaving
p288
aVonce
p289
atp290
Rp291
.