c__builtin__
set
p0
((lp1
Vall
p2
aVshe'll
p3
aVdon't
p4
aVbeing
p5
aS'-'
p6
aVover
p7
aVthrough
p8
aVduring
p9
aS'{'
p10
aVits
p11
aVbefore
p12
aS'$'
p13
aVhe's
p14
aVwhen's
p15
aVwe've
p16
aVhad
p17
aS','
p18
aVshould
p19
aVhe'd
p20
aVto
p21
aVonly
p22
aVdoes
p23
aVhere's
p24
aVunder
p25
aVours
p26
aVhas
p27
aS'<'
p28
aVhaven't
p29
aVdo
p30
aVthem
p31
aVhis
p32
aVabove
p33
aVvery
p34
aVwho's
p35
aVthey'd
p36
aVcannot
p37
aVyou've
p38
aVthey
p39
aVnot
p40
aVyourselves
p41
aVhim
p42
aVnor
p43
aS'`'
p44
aVwe'll
p45
aS'%'
p46
aVdid
p47
aVthey've
p48
aS'^'
p49
aVwasn't
p50
aVshe
p51
aVeach
p52
aVwon't
p53
aVwhere
p54
aVmustn't
p55
aVisn't
p56
aVi'll
p57
aVwhy's
p58
aVbecause
p59
aVyou'd
p60
aVdoing
p61
aVtheirs
p62
aVsome
p63
aVhasn't
p64
aVare
p65
aVfurther
p66
aVourselves
p67
aVout
p68
aVwhat
p69
aVfor
p70
aVherself
p71
aS'+'
p72
aVbelow
p73
aS'/'
p74
aVthere's
p75
aVshouldn't
p76
aVthey'll
p77
aVbetween
p78
aS';'
p79
aS'?'
p80
aVbe
p81
aVwe
p82
aVafter
p83
aVdoesn't
p84
aVhere
p85
aVhers
p86
aS'['
p87
aVaren't
p88
aVby
p89
aS'_'
p90
aVboth
p91
aVabout
p92
aVher
p93
aVof
p94
aVcould
p95
aS'&'
p96
aVagainst
p97
aS'|'
p98
aVi'd
p99
aVweren't
p100
aS'('
p101
aVi'm
p102
aS'~'
p103
aVor
p104
aVcan't
p105
aVown
p106
aS'*'
p107
aVinto
p108
aVyourself
p109
aVdown
p110
aVhadn't
p111
aVcouldn't
p112
aS'.'
p113
aVyour
p114
aVyou're
p115
aS'"'
p116
aVfrom
p117
aVhow's
p118
aVwould
p119
aVtheir
p120
aVit's
p121
aVthere
p122
aVbeen
p123
aVhe'll
p124
aVwhom
p125
aVtoo
p126
aVthemselves
p127
aS':'
p128
aVwas
p129
aVuntil
p130
aS'\\'
p131
aVmore
p132
aVhimself
p133
aVi've
p134
aVam
p135
aVwhat's
p136
aVbut
p137
aVit
p138
aS'@'
p139
aVwith
p140
aVthan
p141
aVthose
p142
aVhe
p143
aVme
p144
aVthey're
p145
aVmyself
p146
aVthis
p147
aVup
p148
aVwhile
p149
aVought
p150
aVwere
p151
aS'>'
p152
aVmy
p153
aVwouldn't
p154
aVwe'd
p155
aVand
p156
aVthen
p157
aVis
p158
aVdidn't
p159
aVfew
p160
aVan
p161
aVas
p162
aVitself
p163
aVat
p164
aVhave
p165
aVin
p166
aVany
p167
aVif
p168
aS'!'
p169
aVthese
p170
aVlet's
p171
aVno
p172
aS')'
p173
aVthat
p174
aVwhen
p175
aVsame
p176
aVhow
p177
aVother
p178
aVwhich
p179
aVyou
p180
aVshan't
p181
aS'='
p182
aVagain
p183
aVour
p184
aVwho
p185
aS'#'
p186
aVwhere's
p187
aVmost
p188
aVsuch
p189
aVon
p190
aS']'
p191
aVwhy
p192
aVa
p193
aVoff
p194
aS"'"
p195
aVi
p196
aVshe'd
p197
aVhaving
p198
aVyou'll
p199
aVso
p200
aVwe're
p201
aVshe's
p202
aVthe
p203
aVonce
p204
aS'}'
p205
aVyours
p206
aVthat's
p207
atp208
Rp209
.