c__builtin__
set
p0
((lp1
Vall
p2
aVshe'll
p3
aVdon't
p4
aVbeing
p5
aVover
p6
aVthrough
p7
aVyourselves
p8
aVits
p9
aVbefore
p10
aVhe's
p11
aVwhen's
p12
aVwe've
p13
aVhad
p14
aVshould
p15
aVhe'd
p16
aVto
p17
aVonly
p18
aVthere's
p19
aVthose
p20
aVunder
p21
aVours
p22
aVhas
p23
aVhaven't
p24
aVdo
p25
aVthem
p26
aVhis
p27
aVthey'll
p28
aVvery
p29
aVwho's
p30
aVthey'd
p31
aVcannot
p32
aVyou've
p33
aVthey
p34
aVnot
p35
aVduring
p36
aVyourself
p37
aVhim
p38
aVnor
p39
aVwe'll
p40
aVdid
p41
aVthey've
p42
aVthis
p43
aVshe
p44
aVeach
p45
aVwon't
p46
aVwhere
p47
aVmustn't
p48
aVisn't
p49
aVi'll
p50
aVwhy's
p51
aVbecause
p52
aVyou'd
p53
aVdoing
p54
aVsome
p55
aVup
p56
aVare
p57
aVfurther
p58
aVourselves
p59
aVout
p60
aVwhat
p61
aVfor
p62
aVwhile
p63
aVwasn't
p64
aVdoes
p65
aVshouldn't
p66
aVabove
p67
aVbetween
p68
aVbe
p69
aVwe
p70
aVwho
p71
aVyou're
p72
aVwere
p73
aVhere
p74
aVhers
p75
aVaren't
p76
aVby
p77
aVboth
p78
aVabout
p79
aVwould
p80
aVof
p81
aVcould
p82
aVagainst
p83
aVi'd
p84
aVweren't
p85
aVi'm
p86
aVor
p87
aVcan't
p88
aVown
p89
aVinto
p90
aVwhom
p91
aVdown
p92
aVhadn't
p93
aVcouldn't
p94
aVyour
p95
aVdoesn't
p96
aVfrom
p97
aVhow's
p98
aVher
p99
aVtheir
p100
aVit's
p101
aVthere
p102
aVbeen
p103
aVwhy
p104
aVfew
p105
aVtoo
p106
aVthemselves
p107
aVwas
p108
aVuntil
p109
aVmore
p110
aVhimself
p111
aVwhere's
p112
aVi've
p113
aVwith
p114
aVdidn't
p115
aVwhat's
p116
aVbut
p117
aVherself
p118
aVthan
p119
aVhere's
p120
aVhe
p121
aVme
p122
aVthey're
p123
aVmyself
p124
aVthese
p125
aVhasn't
p126
aVbelow
p127
aVought
p128
aVtheirs
p129
aVmy
p130
aVwouldn't
p131
aVwe'd
p132
aVand
p133
aVthen
p134
aVis
p135
aVam
p136
aVit
p137
aVan
p138
aVas
p139
aVitself
p140
aVat
p141
aVhave
p142
aVin
p143
aVany
p144
aVif
p145
aVagain
p146
aVno
p147
aVthat
p148
aVwhen
p149
aVsame
p150
aVhow
p151
aVother
p152
aVwhich
p153
aVyou
p154
aVshan't
p155
aVour
p156
aVafter
p157
aVlet's
p158
aVmost
p159
aVsuch
p160
aVon
p161
aVhe'll
p162
aVa
p163
aVoff
p164
aVi
p165
aVshe'd
p166
aVyours
p167
aVyou'll
p168
aVso
p169
aVwe're
p170
aVshe's
p171
aVthe
p172
aVthat's
p173
aVhaving
p174
aVonce
p175
atp176
Rp177
.