c__builtin__
set
p0
((lp1
Vall
p2
aVshe'll
p3
aS'help'
p4
aVdon't
p5
aVbeing
p6
aVwhen
p7
aVover
p8
aS'text'
p9
aVthrough
p10
aS'nbsp'
p11
aVyourselves
p12
aVhe'll
p13
aS'font'
p14
aVits
p15
aVbefore
p16
aS'style'
p17
aS'arial'
p18
aS'$'
p19
aVhe's
p20
aVwhen's
p21
aVwe've
p22
aS'xent'
p23
aVhad
p24
aS','
p25
aS'verdana'
p26
aVshould
p27
aVhe'd
p28
aVto
p29
aVonly
p30
aVthere's
p31
aVthose
p32
aS'version'
p33
aVunder
p34
aVours
p35
aS'ffffff'
p36
aVhas
p37
aS'<'
p38
aVhaven't
p39
aS'recipient'
p40
aVdo
p41
aVthem
p42
aVhis
p43
aS'return'
p44
aVthey'll
p45
aVvery
p46
aVwho's
p47
aS'zzzz'
p48
aVthey'd
p49
aVcannot
p50
aS'example'
p51
aVyou've
p52
aVthey
p53
aVnot
p54
aVduring
p55
aS'height'
p56
aS'class'
p57
aVhim
p58
aVnor
p59
aS'sans'
p60
aS'cnet'
p61
aS'`'
p62
aVwe'll
p63
aS'name'
p64
aS'header'
p65
aVdid
p66
aS'cellspacing'
p67
aS'bgcolor'
p68
aS'list'
p69
aVthey've
p70
aVthis
p71
aVshe
p72
aVeach
p73
aVwon't
p74
aS'smtp'
p75
aVwhere
p76
aVmustn't
p77
aVisn't
p78
aS'localhost'
p79
aVi'll
p80
aVwhy's
p81
aVbecause
p82
aS'charset'
p83
aVyou'd
p84
aVdoing
p85
aVthere
p86
aVsome
p87
aVup
p88
aVare
p89
aS'images'
p90
aVfurther
p91
aVourselves
p92
aVout
p93
aS'delivered'
p94
aVwhat
p95
aVfor
p96
aS'halign'
p97
aS'+'
p98
aVwhile
p99
aS'/'
p100
aS'content'
p101
aVdoes
p102
aS'listinfo'
p103
aVshouldn't
p104
aVabove
p105
aVbetween
p106
aS';'
p107
aS'email'
p108
aS'?'
p109
aS'body'
p110
aVbe
p111
aVwe
p112
aVwho
p113
aS'html'
p114
aVyou're
p115
aS'left'
p116
aVwere
p117
aS'subject'
p118
aVhere
p119
aS'receiver'
p120
aS'mime'
p121
aS'clickthru'
p122
aVhers
p123
aS'span'
p124
aS'['
p125
aVaren't
p126
aVby
p127
aS'_'
p128
aS'zdnet'
p129
aVboth
p130
aVabout
p131
aVwould
p132
aS'admin'
p133
aVtheirs
p134
aVcould
p135
aS'title'
p136
aS'esmtp'
p137
aVagainst
p138
aS'|'
p139
aS'rssfeeds'
p140
aS'netnoteinc'
p141
aVi'd
p142
aVweren't
p143
aS'('
p144
aS'cellpadding'
p145
aS'{'
p146
aVor
p147
aVcan't
p148
aVown
p149
aS'color'
p150
aS'colspan'
p151
aVinto
p152
aVyourself
p153
aVdown
p154
aVhadn't
p155
aS'href'
p156
aVcouldn't
p157
aS'path'
p158
aS'home'
p159
aS'table'
p160
aS'message'
p161
aVyour
p162
aS'size'
p163
aS'mailto'
p164
aVdoesn't
p165
aVhe
p166
aS'"'
p167
aVfrom
p168
aVhow's
p169
aVher
p170
aS'&'
p171
aVit's
p172
aS'*'
p173
aS'helvetica'
p174
aVbeen
p175
aS'.'
p176
aVtheir
p177
aVtoo
p178
aVthen
p179
aVthemselves
p180
aS':'
p181
aVwas
p182
aVuntil
p183
aS'\\'
p184
aVmore
p185
aS'fork'
p186
aVhimself
p187
aVwhere's
p188
aS'option'
p189
aVi've
p190
aVwith
p191
aVdidn't
p192
aVwhat's
p193
aS'valign'
p194
aVbut
p195
aS'delivery'
p196
aS'serif'
p197
aS'unsubscribe'
p198
aS'mail'
p199
aVherself
p200
aVthan
p201
aVhere's
p202
aS'^'
p203
aVme
p204
aVthey're
p205
aVmyself
p206
aS'sender'
p207
aS'input'
p208
aVwasn't
p209
aS'type'
p210
aS'align'
p211
aVhasn't
p212
aS'value'
p213
aS'will'
p214
aS'postfix'
p215
aVbelow
p216
aVought
p217
aVof
p218
aS'>'
p219
aVmy
p220
aVwouldn't
p221
aS'~'
p222
aVand
p223
aVfew
p224
aS'@'
p225
aS'request'
p226
aVis
p227
aS'received'
p228
aVam
p229
aVit
p230
aVan
p231
aVwe'd
p232
aVas
p233
aVitself
p234
aS'right'
p235
aVat
p236
aVhave
p237
aVin
p238
aS'face'
p239
aVshan't
p240
aVany
p241
aVwhom
p242
aS'!'
p243
aVthese
p244
aS'%'
p245
aVno
p246
aS')'
p247
aS'border'
p248
aVthat
p249
aS'-'
p250
aVsame
p251
aS'click'
p252
aVhow
p253
aVother
p254
aVwhich
p255
aS'online'
p256
aVyou
p257
aVif
p258
aS'='
p259
aS'tests'
p260
aS'http'
p261
aVagain
p262
aVour
p263
aVwhy
p264
aVafter
p265
aS'#'
p266
aVlet's
p267
aVmost
p268
aS'date'
p269
aVsuch
p270
aVon
p271
aS']'
p272
aVi'm
p273
aVa
p274
aVoff
p275
aS"'"
p276
aVi
p277
aS'subscribe'
p278
aS'center'
p279
aVshe'd
p280
aVyours
p281
aVyou'll
p282
aS'width'
p283
aVso
p284
aVwe're
p285
aVshe's
p286
aVthe
p287
aVthat's
p288
aS'}'
p289
aVhaving
p290
aVonce
p291
atp292
Rp293
.