c__builtin__
set
p0
((lp1
Vall
p2
aVshe'll
p3
aS'help'
p4
aVdon't
p5
aVbeing
p6
aVwhen
p7
aVover
p8
aS'text'
p9
aVthrough
p10
aS'nbsp'
p11
aVyourselves
p12
aVhe'll
p13
aS'font'
p14
aVits
p15
aVbefore
p16
aS'style'
p17
aS'arial'
p18
aS'$'
p19
aVhe's
p20
aVwhen's
p21
aVwe've
p22
aS'xent'
p23
aVhad
p24
aS','
p25
aS'verdana'
p26
aVshould
p27
aVhe'd
p28
aVto
p29
aVonly
p30
aVthere's
p31
aVthose
p32
aS'version'
p33
aVunder
p34
aVours
p35
aS'ffffff'
p36
aVhas
p37
aS'<'
p38
aVhaven't
p39
aVdo
p40
aVthem
p41
aVhis
p42
aS'return'
p43
aVthey'll
p44
aVvery
p45
aVwho's
p46
aS'zzzz'
p47
aVthey'd
p48
aVcannot
p49
aS'example'
p50
aVyou've
p51
aVthey
p52
aVnot
p53
aVduring
p54
aS'height'
p55
aS'class'
p56
aVhim
p57
aVnor
p58
aS'sans'
p59
aS'cnet'
p60
aS'`'
p61
aVwe'll
p62
aS'name'
p63
aS'header'
p64
aVdid
p65
aS'cellspacing'
p66
aS'bgcolor'
p67
aS'list'
p68
aVthey've
p69
aVthis
p70
aVshe
p71
aVeach
p72
aVwon't
p73
aS'smtp'
p74
aVwhere
p75
aVmustn't
p76
aVisn't
p77
aS'localhost'
p78
aVi'll
p79
aVwhy's
p80
aVbecause
p81
aS'charset'
p82
aVyou'd
p83
aVdoing
p84
aVthere
p85
aVsome
p86
aVup
p87
aVare
p88
aS'images'
p89
aVfurther
p90
aVourselves
p91
aVout
p92
aS'delivered'
p93
aVwhat
p94
aVfor
p95
aS'halign'
p96
aS'+'
p97
aVwhile
p98
aS'/'
p99
aS'content'
p100
aVdoes
p101
aS'listinfo'
p102
aVshouldn't
p103
aVabove
p104
aVbetween
p105
aS';'
p106
aS'email'
p107
aS'?'
p108
aS'body'
p109
aVbe
p110
aVwe
p111
aVwho
p112
aS'html'
p113
aVyou're
p114
aS'left'
p115
aVwere
p116
aS'subject'
p117
aVhere
p118
aS'mime'
p119
aS'clickthru'
p120
aVhers
p121
aS'span'
p122
aS'['
p123
aVaren't
p124
aVby
p125
aS'_'
p126
aS'zdnet'
p127
aVboth
p128
aVabout
p129
aVwould
p130
aS'admin'
p131
aVtheirs
p132
aVcould
p133
aS'esmtp'
p134
aVagainst
p135
aS'|'
p136
aS'netnoteinc'
p137
aVi'd
p138
aVweren't
p139
aS'('
p140
aS'cellpadding'
p141
aS'{'
p142
aVor
p143
aVcan't
p144
aVown
p145
aS'color'
p146
aS'colspan'
p147
aVinto
p148
aVyourself
p149
aVdown
p150
aVhadn't
p151
aS'href'
p152
aVcouldn't
p153
aS'home'
p154
aS'table'
p155
aS'message'
p156
aVyour
p157
aS'size'
p158
aS'mailto'
p159
aVdoesn't
p160
aVhe
p161
aS'"'
p162
aVfrom
p163
aVhow's
p164
aVher
p165
aS'&'
p166
aVit's
p167
aS'*'
p168
aS'helvetica'
p169
aVbeen
p170
aS'.'
p171
aVtheir
p172
aVtoo
p173
aVthen
p174
aVthemselves
p175
aS':'
p176
aVwas
p177
aVuntil
p178
aS'\\'
p179
aVmore
p180
aS'fork'
p181
aVhimself
p182
aVwhere's
p183
aS'option'
p184
aVi've
p185
aVwith
p186
aVdidn't
p187
aVwhat's
p188
aS'valign'
p189
aVbut
p190
aS'delivery'
p191
aS'serif'
p192
aS'unsubscribe'
p193
aS'mail'
p194
aVherself
p195
aVthan
p196
aVhere's
p197
aS'^'
p198
aVme
p199
aVthey're
p200
aVmyself
p201
aS'input'
p202
aVwasn't
p203
aS'type'
p204
aS'align'
p205
aVhasn't
p206
aS'value'
p207
aS'will'
p208
aS'postfix'
p209
aVbelow
p210
aVought
p211
aVof
p212
aS'>'
p213
aVmy
p214
aVwouldn't
p215
aS'~'
p216
aVand
p217
aVfew
p218
aS'@'
p219
aS'request'
p220
aVis
p221
aS'received'
p222
aVam
p223
aVit
p224
aVan
p225
aVwe'd
p226
aVas
p227
aVitself
p228
aS'right'
p229
aVat
p230
aVhave
p231
aVin
p232
aS'face'
p233
aVshan't
p234
aVany
p235
aVwhom
p236
aS'!'
p237
aVthese
p238
aS'%'
p239
aVno
p240
aS')'
p241
aS'border'
p242
aVthat
p243
aS'-'
p244
aVsame
p245
aS'click'
p246
aVhow
p247
aVother
p248
aVwhich
p249
aS'online'
p250
aVyou
p251
aVif
p252
aS'='
p253
aS'http'
p254
aVagain
p255
aVour
p256
aVwhy
p257
aVafter
p258
aS'#'
p259
aVlet's
p260
aVmost
p261
aS'date'
p262
aVsuch
p263
aVon
p264
aS']'
p265
aVi'm
p266
aVa
p267
aVoff
p268
aS"'"
p269
aVi
p270
aS'subscribe'
p271
aS'center'
p272
aVshe'd
p273
aVyours
p274
aVyou'll
p275
aS'width'
p276
aVso
p277
aVwe're
p278
aVshe's
p279
aVthe
p280
aVthat's
p281
aS'}'
p282
aVhaving
p283
aVonce
p284
atp285
Rp286
.