c__builtin__
set
p0
((lp1
Vall
p2
aVshe'll
p3
aS'help'
p4
aVdon't
p5
aVbeing
p6
aVwhen
p7
aVover
p8
aS'text'
p9
aVthrough
p10
aS'nbsp'
p11
aVyourselves
p12
aVhe'll
p13
aS'font'
p14
aVits
p15
aVbefore
p16
aS'style'
p17
aS'arial'
p18
aS'$'
p19
aVhe's
p20
aVwhen's
p21
aVwe've
p22
aS'xent'
p23
aVhad
p24
aS','
p25
aS'verdana'
p26
aVshould
p27
aVhe'd
p28
aVto
p29
aVonly
p30
aVthere's
p31
aVthose
p32
aS'version'
p33
aVunder
p34
aVours
p35
aS'ffffff'
p36
aVhas
p37
aS'<'
p38
aVhaven't
p39
aS'recipient'
p40
aVdo
p41
aVthem
p42
aVhis
p43
aS'return'
p44
aVthey'll
p45
aVvery
p46
aVwho's
p47
aS'zzzz'
p48
aVthey'd
p49
aVcannot
p50
aS'example'
p51
aVyou've
p52
aVthey
p53
aVnot
p54
aVduring
p55
aS'height'
p56
aS'class'
p57
aVhim
p58
aVnor
p59
aS'sans'
p60
aS'cnet'
p61
aS'`'
p62
aVwe'll
p63
aS'name'
p64
aS'header'
p65
aVdid
p66
aS'cellspacing'
p67
aS'bgcolor'
p68
aS'list'
p69
aVthey've
p70
aVthis
p71
aVshe
p72
aVeach
p73
aVwon't
p74
aS'smtp'
p75
aVwhere
p76
aVmustn't
p77
aVisn't
p78
aS'localhost'
p79
aVi'll
p80
aVwhy's
p81
aVbecause
p82
aS'charset'
p83
aVyou'd
p84
aVdoing
p85
aVthere
p86
aVsome
p87
aVup
p88
aVare
p89
aS'images'
p90
aVfurther
p91
aVourselves
p92
aVout
p93
aS'delivered'
p94
aVwhat
p95
aVfor
p96
aS'halign'
p97
aS'+'
p98
aVwhile
p99
aS'/'
p100
aS'content'
p101
aVdoes
p102
aS'listinfo'
p103
aVshouldn't
p104
aVabove
p105
aVbetween
p106
aS';'
p107
aS'email'
p108
aS'?'
p109
aS'body'
p110
aVbe
p111
aVwe
p112
aVwho
p113
aS'html'
p114
aVyou're
p115
aS'left'
p116
aVwere
p117
aS'subject'
p118
aVhere
p119
aS'receiver'
p120
aS'mime'
p121
aS'clickthru'
p122
aVhers
p123
aS'span'
p124
aS'['
p125
aVaren't
p126
aVby
p127
aS'_'
p128
aS'zdnet'
p129
aVboth
p130
aVabout
p131
aVwould
p132
aS'admin'
p133
aVtheirs
p134
aVcould
p135
aS'esmtp'
p136
aVagainst
p137
aS'|'
p138
aS'netnoteinc'
p139
aVi'd
p140
aVweren't
p141
aS'('
p142
aS'cellpadding'
p143
aS'{'
p144
aVor
p145
aVcan't
p146
aVown
p147
aS'color'
p148
aS'colspan'
p149
aVinto
p150
aVyourself
p151
aVdown
p152
aVhadn't
p153
aS'href'
p154
aVcouldn't
p155
aS'path'
p156
aS'home'
p157
aS'table'
p158
aS'message'
p159
aVyour
p160
aS'size'
p161
aS'mailto'
p162
aVdoesn't
p163
aVhe
p164
aS'"'
p165
aVfrom
p166
aVhow's
p167
aVher
p168
aS'&'
p169
aVit's
p170
aS'*'
p171
aS'helvetica'
p172
aVbeen
p173
aS'.'
p174
aVtheir
p175
aVtoo
p176
aVthen
p177
aVthemselves
p178
aS':'
p179
aVwas
p180
aVuntil
p181
aS'\\'
p182
aVmore
p183
aS'fork'
p184
aVhimself
p185
aVwhere's
p186
aS'option'
p187
aVi've
p188
aVwith
p189
aVdidn't
p190
aVwhat's
p191
aS'valign'
p192
aVbut
p193
aS'delivery'
p194
aS'serif'
p195
aS'unsubscribe'
p196
aS'mail'
p197
aVherself
p198
aVthan
p199
aVhere's
p200
aS'^'
p201
aVme
p202
aVthey're
p203
aVmyself
p204
aS'sender'
p205
aS'input'
p206
aVwasn't
p207
aS'type'
p208
aS'align'
p209
aVhasn't
p210
aS'value'
p211
aS'will'
p212
aS'postfix'
p213
aVbelow
p214
aVought
p215
aVof
p216
aS'>'
p217
aVmy
p218
aVwouldn't
p219
aS'~'
p220
aVand
p221
aVfew
p222
aS'@'
p223
aS'request'
p224
aVis
p225
aS'received'
p226
aVam
p227
aVit
p228
aVan
p229
aVwe'd
p230
aVas
p231
aVitself
p232
aS'right'
p233
aVat
p234
aVhave
p235
aVin
p236
aS'face'
p237
aVshan't
p238
aVany
p239
aVwhom
p240
aS'!'
p241
aVthese
p242
aS'%'
p243
aVno
p244
aS')'
p245
aS'border'
p246
aVthat
p247
aS'-'
p248
aVsame
p249
aS'click'
p250
aVhow
p251
aVother
p252
aVwhich
p253
aS'online'
p254
aVyou
p255
aVif
p256
aS'='
p257
aS'http'
p258
aVagain
p259
aVour
p260
aVwhy
p261
aVafter
p262
aS'#'
p263
aVlet's
p264
aVmost
p265
aS'date'
p266
aVsuch
p267
aVon
p268
aS']'
p269
aVi'm
p270
aVa
p271
aVoff
p272
aS"'"
p273
aVi
p274
aS'subscribe'
p275
aS'center'
p276
aVshe'd
p277
aVyours
p278
aVyou'll
p279
aS'width'
p280
aVso
p281
aVwe're
p282
aVshe's
p283
aVthe
p284
aVthat's
p285
aS'}'
p286
aVhaving
p287
aVonce
p288
atp289
Rp290
.